target datalayout = "e-m:e-p270:32:32-p271:32:32-p272:64:64-i64:64-i128:128-f80:128-n8:16:32:64-S128"
target triple = "x86_64-pc-linux-gnu"

%"class.icu_77::CollationRootElements" = type <{ ptr, i32, [4 x i8] }>

; Function Attrs: mustprogress uwtable
define noundef i32 @_ZNK6icu_7721CollationRootElements15getPrimaryAfterEjia(ptr noundef nonnull align 8 dereferenceable(12) %0, i32 noundef %1, i32 noundef %2, i8 noundef signext %3) #0 align 2 {
  %5 = alloca i32, align 4
  %6 = alloca ptr, align 8
  %7 = alloca i32, align 4
  %8 = alloca i32, align 4
  %9 = alloca i8, align 1
  %10 = alloca i32, align 4
  %11 = alloca i32, align 4
  %12 = alloca i32, align 4
  store ptr %0, ptr %6, align 8, !tbaa !3
  store i32 %1, ptr %7, align 4, !tbaa !8
  store i32 %2, ptr %8, align 4, !tbaa !8
  store i8 %3, ptr %9, align 1, !tbaa !21
  %13 = load ptr, ptr %6, align 8
  call void @llvm.lifetime.start.p0(i64 4, ptr %10) #4
  %14 = getelementptr inbounds nuw %"class.icu_77::CollationRootElements", ptr %13, i32 0, i32 0
  %15 = load ptr, ptr %14, align 8, !tbaa !10
  %16 = load i32, ptr %8, align 4, !tbaa !8
  %17 = add nsw i32 %16, 1
  store i32 %17, ptr %8, align 4, !tbaa !8
  %18 = sext i32 %17 to i64
  %19 = getelementptr inbounds i32, ptr %15, i64 %18
  %20 = load i32, ptr %19, align 4, !tbaa !8
  store i32 %20, ptr %10, align 4, !tbaa !8
  call void @llvm.lifetime.start.p0(i64 4, ptr %11) #4
  %21 = load i32, ptr %10, align 4, !tbaa !8
  %22 = and i32 %21, 128
  %23 = icmp eq i32 %22, 0
  br i1 %23, label %24, label %42

24:                                               ; preds = %4
  %25 = load i32, ptr %10, align 4, !tbaa !8
  %26 = and i32 %25, 127
  store i32 %26, ptr %11, align 4, !tbaa !8
  %27 = icmp ne i32 %26, 0
  br i1 %27, label %28, label %42

28:                                               ; preds = %24
  %29 = load i32, ptr %7, align 4, !tbaa !8
  %30 = and i32 %29, 65535
  %31 = icmp eq i32 %30, 0
  br i1 %31, label %32, label %37

32:                                               ; preds = %28
  %33 = load i32, ptr %7, align 4, !tbaa !8
  %34 = load i8, ptr %9, align 1, !tbaa !21
  %35 = load i32, ptr %11, align 4, !tbaa !8
  %36 = call noundef i32 @_ZN6icu_779Collation25incTwoBytePrimaryByOffsetEjai(i32 noundef %33, i8 noundef signext %34, i32 noundef %35)
  store i32 %36, ptr %5, align 4
  store i32 1, ptr %12, align 4
  br label %57

37:                                               ; preds = %28
  %38 = load i32, ptr %7, align 4, !tbaa !8
  %39 = load i8, ptr %9, align 1, !tbaa !21
  %40 = load i32, ptr %11, align 4, !tbaa !8
  %41 = call noundef i32 @_ZN6icu_779Collation27incThreeBytePrimaryByOffsetEjai(i32 noundef %38, i8 noundef signext %39, i32 noundef %40)
  store i32 %41, ptr %5, align 4
  store i32 1, ptr %12, align 4
  br label %57

42:                                               ; preds = %24, %4
  br label %43

43:                                               ; preds = %47, %42
  %44 = load i32, ptr %10, align 4, !tbaa !8
  %45 = and i32 %44, 128
  %46 = icmp ne i32 %45, 0
  br i1 %46, label %47, label %55

47:                                               ; preds = %43
  %48 = getelementptr inbounds nuw %"class.icu_77::CollationRootElements", ptr %13, i32 0, i32 0
  %49 = load ptr, ptr %48, align 8, !tbaa !10
  %50 = load i32, ptr %8, align 4, !tbaa !8
  %51 = add nsw i32 %50, 1
  store i32 %51, ptr %8, align 4, !tbaa !8
  %52 = sext i32 %51 to i64
  %53 = getelementptr inbounds i32, ptr %49, i64 %52
  %54 = load i32, ptr %53, align 4, !tbaa !8
  store i32 %54, ptr %10, align 4, !tbaa !8
  br label %43, !llvm.loop !25

55:                                               ; preds = %43
  %56 = load i32, ptr %10, align 4, !tbaa !8
  store i32 %56, ptr %5, align 4
  store i32 1, ptr %12, align 4
  br label %57

57:                                               ; preds = %55, %37, %32
  call void @llvm.lifetime.end.p0(i64 4, ptr %11) #4
  call void @llvm.lifetime.end.p0(i64 4, ptr %10) #4
  %58 = load i32, ptr %5, align 4
  ret i32 %58
}