; Function Attrs: mustprogress uwtable
define noundef i32 @_ZNK6icu_7721CollationRootElements15getPrimaryAfterEjia(ptr noundef nonnull readonly align 8 captures(none) dereferenceable(12) %0, i32 noundef %1, i32 noundef %2, i8 noundef signext %3) local_unnamed_addr #1 align 2 {
  %5 = load ptr, ptr %0, align 8, !tbaa !3
  %6 = sext i32 %2 to i64
  %7 = getelementptr i32, ptr %5, i64 %6
  %8 = getelementptr i8, ptr %7, i64 4
  %9 = load i32, ptr %8, align 4, !tbaa !10
  %10 = and i32 %9, 128
  %11 = icmp eq i32 %10, 0
  br i1 %11, label %12, label %.lr.ph.preheader

12:                                               ; preds = %4
  %13 = and i32 %9, 127
  %.not = icmp eq i32 %13, 0
  br i1 %.not, label %.loopexit, label %14

14:                                               ; preds = %12
  %15 = and i32 %1, 65535
  %16 = icmp eq i32 %15, 0
  br i1 %16, label %17, label %19

17:                                               ; preds = %14
  %18 = tail call noundef i32 @_ZN6icu_779Collation25incTwoBytePrimaryByOffsetEjai(i32 noundef %1, i8 noundef signext %3, i32 noundef %13)
  br label %.loopexit

19:                                               ; preds = %14
  %20 = tail call noundef i32 @_ZN6icu_779Collation27incThreeBytePrimaryByOffsetEjai(i32 noundef %1, i8 noundef signext %3, i32 noundef %13)
  br label %.loopexit

.lr.ph.preheader:                                 ; preds = %4
  %21 = sext i32 %2 to i64
  %22 = add nsw i64 %21, 1
  br label %.lr.ph

.lr.ph:                                           ; preds = %.lr.ph.preheader, %.lr.ph
  %indvars.iv = phi i64 [ %22, %.lr.ph.preheader ], [ %indvars.iv.next, %.lr.ph ]
  %indvars.iv.next = add nsw i64 %indvars.iv, 1
  %23 = getelementptr inbounds i32, ptr %5, i64 %indvars.iv.next
  %24 = load i32, ptr %23, align 4, !tbaa !10
  %25 = and i32 %24, 128
  %.not17 = icmp eq i32 %25, 0
  br i1 %.not17, label %.loopexit, label %.lr.ph, !llvm.loop !21

.loopexit:                                        ; preds = %.lr.ph, %12, %19, %17
  %.0 = phi i32 [ %18, %17 ], [ %20, %19 ], [ %9, %12 ], [ %24, %.lr.ph ]
  ret i32 %.0
}